; Function Attrs: mustprogress uwtable
define void @_ZN4base18ThreadLocalStorage4Slot3SetEPv(ptr noundef nonnull readonly align 4 captures(none) dereferenceable(8) %0, ptr noundef %1) local_unnamed_addr #0 align 2 personality ptr @__gxx_personality_v0 {
  %3 = load atomic volatile i32, ptr @_ZN12_GLOBAL__N_116g_native_tls_keyE monotonic, align 4
  %4 = tail call noundef ptr @_ZN4base8internal26PlatformThreadLocalStorage11GetTLSValueEj(i32 noundef %3)
  %.not.i = icmp eq ptr %4, null
  br i1 %.not.i, label %5, label %_ZN4base18ThreadLocalStorage10StaticSlot3SetEPv.exit

5:                                                ; preds = %2
  %6 = tail call fastcc noundef ptr @_ZN12_GLOBAL__N_118ConstructTlsVectorEv()
  br label %_ZN4base18ThreadLocalStorage10StaticSlot3SetEPv.exit

_ZN4base18ThreadLocalStorage10StaticSlot3SetEPv.exit: ; preds = %2, %5
  %.0.i = phi ptr [ %4, %2 ], [ %6, %5 ]
  %7 = getelementptr inbounds nuw i8, ptr %0, i64 4
  %8 = load i32, ptr %7, align 4, !tbaa !9
  %9 = sext i32 %8 to i64
  %10 = getelementptr inbounds ptr, ptr %.0.i, i64 %9
  store ptr %1, ptr %10, align 8, !tbaa !3
  ret void
}